Certificate:
    Data:
        Version: 3 (0x2)
        Serial Number: 1048577 (0x100001)
        Signature Algorithm: sha1WithRSAEncryption
        Issuer: C=AU, ST=Some-State, O=Internet Widgits Pty Ltd
        Validity
            Not Before: Apr  9 10:40:33 2017 GMT
            Not After : Apr  9 10:40:33 2018 GMT
        Subject: C=AU, ST=Some-State, O=Internet Widgits Pty Ltd, CN=TestClient
        Subject Public Key Info:
            Public Key Algorithm: rsaEncryption
            RSA Public Key: (2028 bit)
                Modulus (2028 bit):
                    0a:a6:26:4f:ce:c2:21:26:e5:c4:f6:59:02:85:48:
                    1e:0a:80:55:e7:92:c6:33:78:7b:88:0c:55:e5:36:
                    ff:ca:81:cd:16:52:08:2d:4b:42:c9:95:06:63:0d:
                    8f:56:cf:bf:fa:d3:e9:d7:6c:ea:57:7a:da:f6:42:
                    ae:88:e9:7c:25:a7:29:a9:9e:6d:e0:d3:d4:a8:6a:
                    eb:51:19:55:43:55:7f:4f:9b:9b:32:05:50:0c:25:
                    b0:69:76:9c:1f:18:4a:7b:34:e4:53:b7:6e:57:1f:
                    f7:9d:2e:f4:83:3f:ce:1f:ef:25:ef:77:be:51:0a:
                    bc:90:d0:fa:d3:9c:27:b2:87:06:e4:7c:8a:94:52:
                    0b:e9:a7:42:ae:16:82:14:2a:94:f1:ab:33:1f:86:
                    1c:ec:5b:02:70:67:aa:68:16:79:1d:e6:0c:46:78:
                    12:d6:80:d1:16:21:02:48:fc:87:c9:78:bd:75:f0:
                    05:b7:e0:e7:d7:c9:11:64:ec:d9:84:ff:5c:c8:d8:
                    ef:84:ce:c9:c4:15:b9:af:53:a7:a2:73:e4:d8:94:
                    aa:88:a0:30:3a:8b:7f:fb:88:02:d5:e3:62:f3:3a:
                    55:bd:41:10:cb:60:50:8b:08:0a:39:12:32:6e:a1:
                    4a:f1:6f:ba:71:cd:8d:c5:9c:c9:da:d8:eb:91
                Exponent: 65537 (0x10001)
        X509v3 extensions:
            X509v3 Basic Constraints: 
                CA:FALSE
            Netscape Comment: 
                OpenSSL Generated Certificate
            X509v3 Subject Key Identifier: 
                24:42:0F:44:F5:2C:3B:E0:5A:76:75:98:62:7C:32:E3:71:9E:80:72
            X509v3 Authority Key Identifier: 
                keyid:5E:BF:3C:21:67:2D:AA:35:C8:A9:C6:31:4F:58:BC:C5:EA:B5:21:E2

    Signature Algorithm: sha1WithRSAEncryption
        65:e5:9f:67:c6:bd:79:19:66:01:2d:88:7b:7c:22:33:b0:80:
        29:e2:0e:8d:ea:01:8e:cf:02:4d:a4:6c:70:9a:12:c4:7b:a5:
        60:32:d4:6d:b1:9a:d7:56:af:eb:a7:37:6a:a4:e3:58:41:70:
        cb:5a:f8:9f:24:73:4b:49:ed:0c:0f:98:a9:61:8c:63:bd:bc:
        f1:44:4b:ee:65:b4:d7:a7:ff:33:22:ed:76:5f:d8:c5:e0:56:
        e9:ec:c4:3a:e0:9b:3b:ca:8e:f6:f8:61:3a:ec:dd:18:62:3d:
        ed:ef:8d:c9:f9:19:de:85:48:a1:30:0a:a2:99:74:5e:2e:a3:
        69:48:20:7d:77:9d:ac:a3:08:eb:5e:da:7c:81:ec:0e:7d:46:
        a5:6e:36:52:77:fa:a3:0f:4d:68:49:a5:43:0f:36:68:00:78:
        08:ac:d5:91:db:96:81:80:a7:95:4d:c4:1c:82:5f:a0:5e:57:
        b6:2c:b3:59:34:43:e4:fd:53:8d:5b:d7:06:a4:9c:1f:62:89:
        31:4e:20:e9:24:0f:5d:22:19:1e:0d:b2:b7:bc:0f:9b:8c:63:
        d6:85:8e:66:8b:8f:7d:3a:df:42:b9:1a:c6:f6:68:b7:e7:7a:
        46:41:d4:8a:e8:da:e0:fb:8b:fb:a8:3b:55:23:67:e3:13:d4:
        c4:9a:63:60
-----BEGIN CERTIFICATE-----
MIIDkzCCAnugAwIBAgIDEAABMA0GCSqGSIb3DQEBBQUAMEUxCzAJBgNVBAYTAkFV
MRMwEQYDVQQIEwpTb21lLVN0YXRlMSEwHwYDVQQKExhJbnRlcm5ldCBXaWRnaXRz
IFB0eSBMdGQwHhcNMTcwNDA5MTA0MDMzWhcNMTgwNDA5MTA0MDMzWjBaMQswCQYD
VQQGEwJBVTETMBEGA1UECBMKU29tZS1TdGF0ZTEhMB8GA1UEChMYSW50ZXJuZXQg
V2lkZ2l0cyBQdHkgTHRkMRMwEQYDVQQDEwpUZXN0Q2xpZW50MIIBHjANBgkqhkiG
9w0BAQEFAAOCAQsAMIIBBgKB/gqmJk/OwiEm5cT2WQKFSB4KgFXnksYzeHuIDFXl
Nv/Kgc0WUggtS0LJlQZjDY9Wz7/60+nXbOpXetr2Qq6I6Xwlpympnm3g09SoautR
GVVDVX9Pm5syBVAMJbBpdpwfGEp7NORTt25XH/edLvSDP84f7yXvd75RCryQ0PrT
nCeyhwbkfIqUUgvpp0KuFoIUKpTxqzMfhhzsWwJwZ6poFnkd5gxGeBLWgNEWIQJI
/IfJeL118AW34OfXyRFk7NmE/1zI2O+EzsnEFbmvU6eic+TYlKqIoDA6i3/7iALV
42LzOlW9QRDLYFCLCAo5EjJuoUrxb7pxzY3FnMna2OuRAgMBAAGjezB5MAkGA1Ud
EwQCMAAwLAYJYIZIAYb4QgENBB8WHU9wZW5TU0wgR2VuZXJhdGVkIENlcnRpZmlj
YXRlMB0GA1UdDgQWBBQkQg9E9Sw74Fp2dZhifDLjcZ6AcjAfBgNVHSMEGDAWgBRe
vzwhZy2qNcipxjFPWLzF6rUh4jANBgkqhkiG9w0BAQUFAAOCAQEAZeWfZ8a9eRlm
AS2Ie3wiM7CAKeIOjeoBjs8CTaRscJoSxHulYDLUbbGa11av66c3aqTjWEFwy1r4
nyRzS0ntDA+YqWGMY7288URL7mW016f/MyLtdl/YxeBW6ezEOuCbO8qO9vhhOuzd
GGI97e+NyfkZ3oVIoTAKopl0Xi6jaUggfXedrKMI617afIHsDn1GpW42Unf6ow9N
aEmlQw82aAB4CKzVkduWgYCnlU3EHIJfoF5XtiyzWTRD5P1TjVvXBqScH2KJMU4g
6SQPXSIZHg2yt7wPm4xj1oWOZouPfTrfQrkaxvZot+d6RkHUiuja4PuL+6g7VSNn
4xPUxJpjYA==
-----END CERTIFICATE-----
